target datalayout = "e-m:e-p270:32:32-p271:32:32-p272:64:64-i64:64-i128:128-f80:128-n8:16:32:64-S128"
target triple = "x86_64-pc-linux-gnu"

%struct.evp_method_data_st = type { ptr, i32, i32, ptr, ptr, ptr, i8, ptr, ptr, ptr }
%struct.filter_data_st = type { i32, ptr, ptr }

; Function Attrs: nounwind uwtable
define internal void @dealloc_tmp_evp_method_store(ptr noundef %0) #0 {
  %2 = alloca ptr, align 8
  store ptr %0, ptr %2, align 8, !tbaa !12
  %3 = load ptr, ptr %2, align 8, !tbaa !12
  %4 = icmp ne ptr %3, null
  br i1 %4, label %5, label %7

5:                                                ; preds = %1
  %6 = load ptr, ptr %2, align 8, !tbaa !12
  call void @ossl_method_store_free(ptr noundef %6)
  br label %7

7:                                                ; preds = %5, %1
  ret void
}

; Function Attrs: nounwind uwtable
define internal ptr @get_evp_method_store(ptr noundef %0) #0 {
  %2 = alloca ptr, align 8
  store ptr %0, ptr %2, align 8, !tbaa !3
  %3 = load ptr, ptr %2, align 8, !tbaa !3
  %4 = call ptr @ossl_lib_ctx_get_data(ptr noundef %3, i32 noundef 0)
  ret ptr %4
}

; Function Attrs: nounwind uwtable
define void @evp_generic_do_all(ptr noundef %0, i32 noundef %1, ptr noundef %2, ptr noundef %3, ptr noundef %4, ptr noundef %5, ptr noundef %6) #0 {
  %8 = alloca ptr, align 8
  %9 = alloca i32, align 4
  %10 = alloca ptr, align 8
  %11 = alloca ptr, align 8
  %12 = alloca ptr, align 8
  %13 = alloca ptr, align 8
  %14 = alloca ptr, align 8
  %15 = alloca %struct.evp_method_data_st, align 8
  %16 = alloca %struct.filter_data_st, align 8
  store ptr %0, ptr %8, align 8, !tbaa !3
  store i32 %1, ptr %9, align 4, !tbaa !8
  store ptr %2, ptr %10, align 8, !tbaa !12
  store ptr %3, ptr %11, align 8, !tbaa !12
  store ptr %4, ptr %12, align 8, !tbaa !12
  store ptr %5, ptr %13, align 8, !tbaa !12
  store ptr %6, ptr %14, align 8, !tbaa !12
  call void @llvm.lifetime.start.p0(i64 72, ptr %15) #6
  call void @llvm.lifetime.start.p0(i64 24, ptr %16) #6
  %17 = load ptr, ptr %8, align 8, !tbaa !3
  %18 = getelementptr inbounds nuw %struct.evp_method_data_st, ptr %15, i32 0, i32 0
  store ptr %17, ptr %18, align 8, !tbaa !13
  %19 = getelementptr inbounds nuw %struct.evp_method_data_st, ptr %15, i32 0, i32 5
  store ptr null, ptr %19, align 8, !tbaa !16
  %20 = load i32, ptr %9, align 4, !tbaa !8
  %21 = load ptr, ptr %12, align 8, !tbaa !12
  %22 = load ptr, ptr %13, align 8, !tbaa !12
  %23 = load ptr, ptr %14, align 8, !tbaa !12
  %24 = call ptr @inner_evp_generic_fetch(ptr noundef %15, ptr noundef null, i32 noundef %20, ptr noundef null, ptr noundef null, ptr noundef %21, ptr noundef %22, ptr noundef %23)
  %25 = load i32, ptr %9, align 4, !tbaa !8
  %26 = getelementptr inbounds nuw %struct.filter_data_st, ptr %16, i32 0, i32 0
  store i32 %25, ptr %26, align 8, !tbaa !37
  %27 = load ptr, ptr %10, align 8, !tbaa !12
  %28 = getelementptr inbounds nuw %struct.filter_data_st, ptr %16, i32 0, i32 1
  store ptr %27, ptr %28, align 8, !tbaa !39
  %29 = load ptr, ptr %11, align 8, !tbaa !12
  %30 = getelementptr inbounds nuw %struct.filter_data_st, ptr %16, i32 0, i32 2
  store ptr %29, ptr %30, align 8, !tbaa !40
  %31 = getelementptr inbounds nuw %struct.evp_method_data_st, ptr %15, i32 0, i32 5
  %32 = load ptr, ptr %31, align 8, !tbaa !16
  %33 = icmp ne ptr %32, null
  br i1 %33, label %34, label %37

34:                                               ; preds = %7
  %35 = getelementptr inbounds nuw %struct.evp_method_data_st, ptr %15, i32 0, i32 5
  %36 = load ptr, ptr %35, align 8, !tbaa !16
  call void @ossl_method_store_do_all(ptr noundef %36, ptr noundef @filter_on_operation_id, ptr noundef %16)
  br label %37

37:                                               ; preds = %34, %7
  %38 = load ptr, ptr %8, align 8, !tbaa !3
  %39 = call ptr @get_evp_method_store(ptr noundef %38)
  call void @ossl_method_store_do_all(ptr noundef %39, ptr noundef @filter_on_operation_id, ptr noundef %16)
  %40 = getelementptr inbounds nuw %struct.evp_method_data_st, ptr %15, i32 0, i32 5
  %41 = load ptr, ptr %40, align 8, !tbaa !16
  call void @dealloc_tmp_evp_method_store(ptr noundef %41)
  call void @llvm.lifetime.end.p0(i64 24, ptr %16) #6
  call void @llvm.lifetime.end.p0(i64 72, ptr %15) #6
  ret void
}