; Function Attrs: nounwind uwtable
define void @evp_generic_do_all(ptr noundef %0, i32 noundef %1, ptr noundef %2, ptr noundef %3, ptr noundef %4, ptr noundef %5, ptr noundef %6) local_unnamed_addr #0 {
  %8 = alloca %struct.evp_method_data_st, align 8
  %9 = alloca %struct.filter_data_st, align 8
  call void @llvm.lifetime.start.p0(i64 72, ptr nonnull %8) #5
  call void @llvm.lifetime.start.p0(i64 24, ptr nonnull %9) #5
  store ptr %0, ptr %8, align 8, !tbaa !3
  %10 = getelementptr inbounds nuw i8, ptr %8, i64 32
  store ptr null, ptr %10, align 8, !tbaa !12
  %11 = call fastcc ptr @inner_evp_generic_fetch(ptr noundef %8, ptr noundef null, i32 noundef %1, ptr noundef null, ptr noundef null, ptr noundef %4, ptr noundef %5, ptr noundef %6)
  store i32 %1, ptr %9, align 8, !tbaa !26
  %12 = getelementptr inbounds nuw i8, ptr %9, i64 8
  store ptr %2, ptr %12, align 8, !tbaa !28
  %13 = getelementptr inbounds nuw i8, ptr %9, i64 16
  store ptr %3, ptr %13, align 8, !tbaa !29
  %14 = load ptr, ptr %10, align 8, !tbaa !12
  %.not = icmp eq ptr %14, null
  br i1 %.not, label %16, label %15

15:                                               ; preds = %7
  call void @ossl_method_store_do_all(ptr noundef nonnull %14, ptr noundef nonnull @filter_on_operation_id, ptr noundef nonnull %9) #5
  br label %16

16:                                               ; preds = %15, %7
  %17 = call ptr @ossl_lib_ctx_get_data(ptr noundef %0, i32 noundef 0) #5
  call void @ossl_method_store_do_all(ptr noundef %17, ptr noundef nonnull @filter_on_operation_id, ptr noundef nonnull %9) #5
  %18 = load ptr, ptr %10, align 8, !tbaa !12
  %.not.i = icmp eq ptr %18, null
  br i1 %.not.i, label %dealloc_tmp_evp_method_store.exit, label %19

19:                                               ; preds = %16
  call void @ossl_method_store_free(ptr noundef nonnull %18) #5
  br label %dealloc_tmp_evp_method_store.exit

dealloc_tmp_evp_method_store.exit:                ; preds = %16, %19
  call void @llvm.lifetime.end.p0(i64 24, ptr nonnull %9) #5
  call void @llvm.lifetime.end.p0(i64 72, ptr nonnull %8) #5
  ret void
}